; Function Attrs: mustprogress uwtable
define void @_ZN3gmx13SetVelocities12processFrameEiP10t_trxframe(ptr noundef nonnull readonly align 8 captures(none) dereferenceable(24) %0, i32 %1, ptr noundef captures(none) %2) unnamed_addr #1 align 2 personality ptr @__gxx_personality_v0 {
  %4 = alloca %"class.gmx::InconsistentInputError", align 8
  %5 = alloca %"class.gmx::ExceptionInitializer", align 8
  %6 = alloca %"class.gmx::ExceptionInfo", align 8
  %7 = alloca %"class.gmx::InconsistentInputError", align 8
  %8 = alloca %"class.gmx::ExceptionInitializer", align 8
  %9 = alloca %"class.gmx::ExceptionInfo", align 8
  %10 = getelementptr inbounds nuw i8, ptr %0, i64 8
  %11 = load i32, ptr %10, align 8, !tbaa !4
  switch i32 %11, label %29 [
    i32 2, label %12
    i32 1, label %15
  ]

12:                                               ; preds = %3
  %13 = getelementptr inbounds nuw i8, ptr %2, i64 80
  store i8 0, ptr %13, align 8, !tbaa !11
  %14 = getelementptr inbounds nuw i8, ptr %2, i64 88
  store ptr null, ptr %14, align 8, !tbaa !22
  br label %39

15:                                               ; preds = %3
  %16 = getelementptr inbounds nuw i8, ptr %2, i64 80
  %17 = load i8, ptr %16, align 8, !tbaa !11, !range !23, !noundef !24
  %18 = trunc nuw i8 %17 to i1
  br i1 %18, label %39, label %19

19:                                               ; preds = %15
  %20 = tail call ptr @__cxa_allocate_exception(i64 24) #17
  call void @llvm.lifetime.start.p0(i64 56, ptr nonnull %5) #17
  invoke void @_ZN3gmx20ExceptionInitializerC2EPKc(ptr noundef nonnull align 8 dereferenceable(56) %5, ptr noundef nonnull @.str.3)
          to label %21 unwind label %.thread

21:                                               ; preds = %19
  invoke void @_ZN3gmx16GromacsExceptionC2ERKNS_20ExceptionInitializerE(ptr noundef nonnull align 8 dereferenceable(24) %4, ptr noundef nonnull align 8 dereferenceable(56) %5)
          to label %22 unwind label %.thread32

22:                                               ; preds = %21
  store ptr getelementptr inbounds nuw inrange(-16, 32) (i8, ptr @_ZTVN3gmx22InconsistentInputErrorE, i64 16), ptr %4, align 8, !tbaa !25
  call void @llvm.lifetime.start.p0(i64 32, ptr nonnull %6) #17
  store ptr getelementptr inbounds nuw inrange(-16, 16) (i8, ptr @_ZTVN3gmx13ExceptionInfoINS_22ExceptionInfoLocation_ENS_13ThrowLocationEEE, i64 16), ptr %6, align 8, !tbaa !25
  %23 = getelementptr inbounds nuw i8, ptr %6, i64 8
  store ptr @__PRETTY_FUNCTION__._ZN3gmx13SetVelocities12processFrameEiP10t_trxframe, ptr %23, align 8, !tbaa !27
  %.sroa.426.0..sroa_idx = getelementptr inbounds nuw i8, ptr %6, i64 16
  store ptr @.str.1, ptr %.sroa.426.0..sroa_idx, align 8, !tbaa !27
  %.sroa.527.0..sroa_idx = getelementptr inbounds nuw i8, ptr %6, i64 24
  store i32 79, ptr %.sroa.527.0..sroa_idx, align 8, !tbaa !29
  invoke void @_ZN3gmxlsINS_22InconsistentInputErrorENS_22ExceptionInfoLocation_ENS_13ThrowLocationEEENSt9enable_ifIXsr3stdE12is_base_of_vINS_16GromacsExceptionET_EES6_E4typeES6_RKNS_13ExceptionInfoIT0_T1_EE(ptr dead_on_unwind writable sret(%"class.gmx::InconsistentInputError") align 8 %20, ptr noundef nonnull %4, ptr noundef nonnull align 8 dereferenceable(32) %6)
          to label %24 unwind label %27

24:                                               ; preds = %22
  invoke void @__cxa_throw(ptr %20, ptr nonnull @_ZTIN3gmx22InconsistentInputErrorE, ptr nonnull @_ZN3gmx16GromacsExceptionD2Ev) #18
          to label %41 unwind label %27

.thread:                                          ; preds = %19
  %25 = landingpad { ptr, i32 }
          cleanup
  br label %.sink.split

.thread32:                                        ; preds = %21
  %26 = landingpad { ptr, i32 }
          cleanup
  call void @_ZN3gmx20ExceptionInitializerD2Ev(ptr noundef nonnull align 8 dereferenceable(56) %5) #17
  br label %.sink.split

27:                                               ; preds = %22, %24
  %.07 = phi i1 [ false, %24 ], [ true, %22 ]
  %28 = landingpad { ptr, i32 }
          cleanup
  call void @_ZN3gmx8internal14IExceptionInfoD2Ev(ptr noundef nonnull align 8 dereferenceable(32) %6) #17
  call void @llvm.lifetime.end.p0(i64 32, ptr nonnull %6) #17
  call void @_ZN3gmx16GromacsExceptionD2Ev(ptr noundef nonnull align 8 dereferenceable(24) %4) #17
  call void @_ZN3gmx20ExceptionInitializerD2Ev(ptr noundef nonnull align 8 dereferenceable(56) %5) #17
  call void @llvm.lifetime.end.p0(i64 56, ptr nonnull %5) #17
  br i1 %.07, label %.sink.split43, label %40

.sink.split:                                      ; preds = %.thread, %.thread32
  %.pn.pn31.ph = phi { ptr, i32 } [ %26, %.thread32 ], [ %25, %.thread ]
  call void @llvm.lifetime.end.p0(i64 56, ptr nonnull %5) #17
  br label %.sink.split43

29:                                               ; preds = %3
  %30 = tail call ptr @__cxa_allocate_exception(i64 24) #17
  call void @llvm.lifetime.start.p0(i64 56, ptr nonnull %8) #17
  invoke void @_ZN3gmx20ExceptionInitializerC2EPKc(ptr noundef nonnull align 8 dereferenceable(56) %8, ptr noundef nonnull @.str.4)
          to label %31 unwind label %.thread35

31:                                               ; preds = %29
  invoke void @_ZN3gmx16GromacsExceptionC2ERKNS_20ExceptionInitializerE(ptr noundef nonnull align 8 dereferenceable(24) %7, ptr noundef nonnull align 8 dereferenceable(56) %8)
          to label %32 unwind label %.thread39

32:                                               ; preds = %31
  store ptr getelementptr inbounds nuw inrange(-16, 32) (i8, ptr @_ZTVN3gmx22InconsistentInputErrorE, i64 16), ptr %7, align 8, !tbaa !25
  call void @llvm.lifetime.start.p0(i64 32, ptr nonnull %9) #17
  store ptr getelementptr inbounds nuw inrange(-16, 16) (i8, ptr @_ZTVN3gmx13ExceptionInfoINS_22ExceptionInfoLocation_ENS_13ThrowLocationEEE, i64 16), ptr %9, align 8, !tbaa !25
  %33 = getelementptr inbounds nuw i8, ptr %9, i64 8
  store ptr @__PRETTY_FUNCTION__._ZN3gmx13SetVelocities12processFrameEiP10t_trxframe, ptr %33, align 8, !tbaa !27
  %.sroa.4.0..sroa_idx = getelementptr inbounds nuw i8, ptr %9, i64 16
  store ptr @.str.1, ptr %.sroa.4.0..sroa_idx, align 8, !tbaa !27
  %.sroa.5.0..sroa_idx = getelementptr inbounds nuw i8, ptr %9, i64 24
  store i32 82, ptr %.sroa.5.0..sroa_idx, align 8, !tbaa !29
  invoke void @_ZN3gmxlsINS_22InconsistentInputErrorENS_22ExceptionInfoLocation_ENS_13ThrowLocationEEENSt9enable_ifIXsr3stdE12is_base_of_vINS_16GromacsExceptionET_EES6_E4typeES6_RKNS_13ExceptionInfoIT0_T1_EE(ptr dead_on_unwind writable sret(%"class.gmx::InconsistentInputError") align 8 %30, ptr noundef nonnull %7, ptr noundef nonnull align 8 dereferenceable(32) %9)
          to label %34 unwind label %37

34:                                               ; preds = %32
  invoke void @__cxa_throw(ptr %30, ptr nonnull @_ZTIN3gmx22InconsistentInputErrorE, ptr nonnull @_ZN3gmx16GromacsExceptionD2Ev) #18
          to label %41 unwind label %37

.thread35:                                        ; preds = %29
  %35 = landingpad { ptr, i32 }
          cleanup
  br label %.sink.split42

.thread39:                                        ; preds = %31
  %36 = landingpad { ptr, i32 }
          cleanup
  call void @_ZN3gmx20ExceptionInitializerD2Ev(ptr noundef nonnull align 8 dereferenceable(56) %8) #17
  br label %.sink.split42

37:                                               ; preds = %32, %34
  %.0 = phi i1 [ false, %34 ], [ true, %32 ]
  %38 = landingpad { ptr, i32 }
          cleanup
  call void @_ZN3gmx8internal14IExceptionInfoD2Ev(ptr noundef nonnull align 8 dereferenceable(32) %9) #17
  call void @llvm.lifetime.end.p0(i64 32, ptr nonnull %9) #17
  call void @_ZN3gmx16GromacsExceptionD2Ev(ptr noundef nonnull align 8 dereferenceable(24) %7) #17
  call void @_ZN3gmx20ExceptionInitializerD2Ev(ptr noundef nonnull align 8 dereferenceable(56) %8) #17
  call void @llvm.lifetime.end.p0(i64 56, ptr nonnull %8) #17
  br i1 %.0, label %.sink.split43, label %40

.sink.split42:                                    ; preds = %.thread35, %.thread39
  %.pn20.pn38.ph = phi { ptr, i32 } [ %36, %.thread39 ], [ %35, %.thread35 ]
  call void @llvm.lifetime.end.p0(i64 56, ptr nonnull %8) #17
  br label %.sink.split43

39:                                               ; preds = %15, %12
  ret void

.sink.split43:                                    ; preds = %37, %.sink.split42, %27, %.sink.split
  %.sink = phi ptr [ %20, %.sink.split ], [ %20, %27 ], [ %30, %.sink.split42 ], [ %30, %37 ]
  %.pn20.pn.pn.ph = phi { ptr, i32 } [ %.pn.pn31.ph, %.sink.split ], [ %28, %27 ], [ %.pn20.pn38.ph, %.sink.split42 ], [ %38, %37 ]
  call void @__cxa_free_exception(ptr %.sink) #17
  br label %40

40:                                               ; preds = %.sink.split43, %37, %27
  %.pn20.pn.pn = phi { ptr, i32 } [ %38, %37 ], [ %28, %27 ], [ %.pn20.pn.pn.ph, %.sink.split43 ]
  resume { ptr, i32 } %.pn20.pn.pn

41:                                               ; preds = %34, %24
  unreachable
}